#include <math.h>
#include <stdio.h>
#include <stdlib.h>
#include <string.h>

int main()
{
	int a[300],b,i=0,j,t,n;
	char c;
	while(1)
	{
		scanf("%d%c",&a[i],&c);
		if(c==',')
			i++;
		else
			break;
	}
	n=i+1;
	if(n==1)
	{
		printf("No\n");
		return 0;
	}
	for(j=0;j<n-1;j++)
		for(i=0;i<n-1-j;i++)
		{
			if(a[i]<a[i+1])
			{
				t=a[i];
				a[i]=a[i+1];
				a[i+1]=t;
			}
		}
	if(a[0]==a[n-1])
	{
		printf("No\n");
		return 0;
	}
	for(i=0;i<n;i++)
	{
		if(a[i+1]<a[i])
		{
			printf("%d\n",a[i+1]);
			break;
		}
	}
}

